; Function Attrs: mustprogress nofree norecurse nosync nounwind willreturn memory(read, inaccessiblemem: none) uwtable
define noundef i32 @_ZNK10open_spiel11pathfinding16PathfindingState11PlayerAtPosERKSt4pairIiiE(ptr nocapture noundef nonnull readonly align 8 dereferenceable(264) %0, ptr nocapture noundef nonnull readonly align 4 dereferenceable(8) %1) local_unnamed_addr #7 align 2 {
  %3 = getelementptr inbounds nuw i8, ptr %0, i64 120
  %4 = load i32, ptr %1, align 4
  %5 = sext i32 %4 to i64
  %6 = load ptr, ptr %3, align 8
  %7 = getelementptr inbounds %"class.std::vector.29", ptr %6, i64 %5
  %8 = getelementptr inbounds nuw i8, ptr %1, i64 4
  %9 = load i32, ptr %8, align 4
  %10 = sext i32 %9 to i64
  %11 = load ptr, ptr %7, align 8
  %12 = getelementptr inbounds i32, ptr %11, i64 %10
  %13 = load i32, ptr %12, align 4
  %14 = icmp sgt i32 %13, -1
  %15 = getelementptr inbounds nuw i8, ptr %0, i64 28
  %16 = load i32, ptr %15, align 4
  %17 = icmp slt i32 %13, %16
  %or.cond = select i1 %14, i1 %17, i1 false
  %.0 = select i1 %or.cond, i32 %13, i32 -3
  ret i32 %.0
}